; ModuleID = 'source-C-CXX/53/444.c'
source_filename = "source-C-CXX/53/444.c"
target datalayout = "e-m:e-p270:32:32-p271:32:32-p272:64:64-i64:64-f80:128-n8:16:32:64-S128"
target triple = "x86_64-pc-linux-gnu"

@.str = private unnamed_addr constant [6 x i8] c"%d %d\00", align 1
@.str.1 = private unnamed_addr constant [3 x i8] c"%d\00", align 1

; Function Attrs: nofree nounwind sspstrong uwtable
define dso_local void @main() local_unnamed_addr #0 {
  %1 = alloca i32, align 4
  %2 = alloca i32, align 4
  %3 = bitcast i32* %1 to i8*
  call void @llvm.lifetime.start.p0i8(i64 4, i8* nonnull %3) #3
  %4 = bitcast i32* %2 to i8*
  call void @llvm.lifetime.start.p0i8(i64 4, i8* nonnull %4) #3
  %5 = call i32 (i8*, ...) @__isoc99_scanf(i8* getelementptr inbounds ([6 x i8], [6 x i8]* @.str, i64 0, i64 0), i32* nonnull %1, i32* nonnull %2)
  %6 = load i32, i32* %1, align 4, !tbaa !5
  %7 = load i32, i32* %2, align 4, !tbaa !5
  %8 = add nsw i32 %6, -1
  %9 = icmp sgt i32 %6, 1
  br i1 %9, label %12, label %10

10:                                               ; preds = %0
  %11 = add nsw i32 %6, %7
  br label %37

12:                                               ; preds = %0, %29
  %13 = phi i32 [ %36, %29 ], [ 1, %0 ]
  %14 = mul nsw i32 %13, %6
  %15 = add nsw i32 %14, %7
  %16 = srem i32 %15, %8
  %17 = icmp eq i32 %16, 0
  br i1 %17, label %18, label %29

18:                                               ; preds = %12, %18
  %19 = phi i32 [ %24, %18 ], [ %15, %12 ]
  %20 = phi i32 [ %22, %18 ], [ 1, %12 ]
  %21 = sdiv i32 %19, %8
  %22 = add nuw nsw i32 %20, 1
  %23 = mul nsw i32 %21, %6
  %24 = add nsw i32 %23, %7
  %25 = srem i32 %24, %8
  %26 = icmp eq i32 %25, 0
  %27 = icmp slt i32 %22, %6
  %28 = select i1 %26, i1 %27, i1 false
  br i1 %28, label %18, label %29

29:                                               ; preds = %18, %12
  %30 = phi i32 [ 1, %12 ], [ %22, %18 ]
  %31 = phi i32 [ %15, %12 ], [ %24, %18 ]
  %32 = phi i32 [ %16, %12 ], [ %25, %18 ]
  %33 = phi i1 [ true, %12 ], [ %27, %18 ]
  %34 = icmp ne i32 %32, 0
  %35 = select i1 %34, i1 %33, i1 false
  %36 = add nuw nsw i32 %13, 1
  br i1 %35, label %12, label %37

37:                                               ; preds = %29, %10
  %38 = phi i32 [ 1, %10 ], [ %30, %29 ]
  %39 = phi i32 [ %11, %10 ], [ %31, %29 ]
  %40 = icmp eq i32 %38, %6
  br i1 %40, label %41, label %43

41:                                               ; preds = %37
  %42 = call i32 (i8*, ...) @printf(i8* nonnull dereferenceable(1) getelementptr inbounds ([3 x i8], [3 x i8]* @.str.1, i64 0, i64 0), i32 %39)
  br label %43

43:                                               ; preds = %41, %37
  call void @llvm.lifetime.end.p0i8(i64 4, i8* nonnull %4) #3
  call void @llvm.lifetime.end.p0i8(i64 4, i8* nonnull %3) #3
  ret void
}

; Function Attrs: argmemonly mustprogress nofree nosync nounwind willreturn
declare void @llvm.lifetime.start.p0i8(i64 immarg, i8* nocapture) #1

; Function Attrs: nofree nounwind
declare noundef i32 @__isoc99_scanf(i8* nocapture noundef readonly, ...) local_unnamed_addr #2

; Function Attrs: nofree nounwind
declare noundef i32 @printf(i8* nocapture noundef readonly, ...) local_unnamed_addr #2

; Function Attrs: argmemonly mustprogress nofree nosync nounwind willreturn
declare void @llvm.lifetime.end.p0i8(i64 immarg, i8* nocapture) #1


!llvm.module.flags = !{!0, !1, !2, !3}
!llvm.ident = !{!4}

!0 = !{i32 1, !"wchar_size", i32 4}
!1 = !{i32 7, !"PIC Level", i32 2}
!2 = !{i32 7, !"PIE Level", i32 2}
!3 = !{i32 7, !"uwtable", i32 1}
!4 = !{!"clang version 13.0.0"}
!5 = !{!6, !6, i64 0}
!6 = !{!"int", !7, i64 0}
!7 = !{!"omnipotent char", !8, i64 0}
!8 = !{!"Simple C/C++ TBAA"}
